target datalayout = "e-m:e-p270:32:32-p271:32:32-p272:64:64-i64:64-i128:128-f80:128-n8:16:32:64-S128"
target triple = "x86_64-pc-linux-gnu"

%struct.H5P_genprop_t = type { ptr, i64, ptr, i32, i8, ptr, ptr, ptr, ptr, ptr, ptr, ptr, ptr, ptr }
%struct.H5P_prop_set_ud_t = type { ptr }

@H5P_init_g = external global i8, align 1
@H5_libterm_g = external global i8, align 1
@.str.7 = private unnamed_addr constant [100 x i8] c"generated/home/dtcxzyw/WorkSpace/Projects/compilers/llvm-opt-benchmark/bench/hdf5/hdf5/src/H5Pint.c\00", align 1
@H5E_PLIST_g = external global i64, align 8
@H5E_BADVALUE_g = external global i64, align 8
@.str.49 = private unnamed_addr constant [23 x i8] c"property has zero size\00", align 1
@__func__.H5P__poke_plist_cb = private unnamed_addr constant [19 x i8] c"H5P__poke_plist_cb\00", align 1

; Function Attrs: nounwind uwtable
define internal i32 @H5P__poke_plist_cb(ptr noundef %0, ptr noundef %1, ptr noundef %2, ptr noundef %3) #0 {
  %5 = alloca ptr, align 8
  %6 = alloca ptr, align 8
  %7 = alloca ptr, align 8
  %8 = alloca ptr, align 8
  %9 = alloca ptr, align 8
  %10 = alloca i32, align 4
  %11 = alloca i8, align 1
  store ptr %0, ptr %5, align 8, !tbaa !59
  store ptr %1, ptr %6, align 8, !tbaa !39
  store ptr %2, ptr %7, align 8, !tbaa !68
  store ptr %3, ptr %8, align 8, !tbaa !40
  call void @llvm.lifetime.start.p0(i64 8, ptr %9) #8
  %12 = load ptr, ptr %8, align 8, !tbaa !40
  store ptr %12, ptr %9, align 8, !tbaa !40
  call void @llvm.lifetime.start.p0(i64 4, ptr %10) #8
  store i32 0, ptr %10, align 4, !tbaa !3
  call void @llvm.lifetime.start.p0(i64 1, ptr %11) #8
  store i8 0, ptr %11, align 1, !tbaa !7
  %13 = load i8, ptr @H5P_init_g, align 1, !tbaa !7, !range !9, !noundef !10
  %14 = trunc i8 %13 to i1
  br i1 %14, label %19, label %15

15:                                               ; preds = %4
  %16 = load i8, ptr @H5_libterm_g, align 1, !tbaa !7, !range !9, !noundef !10
  %17 = trunc i8 %16 to i1
  %18 = xor i1 %17, true
  br label %19

19:                                               ; preds = %15, %4
  %20 = phi i1 [ true, %4 ], [ %18, %15 ]
  %21 = xor i1 %20, true
  %22 = xor i1 %21, true
  %23 = zext i1 %22 to i32
  %24 = sext i32 %23 to i64
  %25 = call i64 @llvm.expect.i64(i64 %24, i64 1)
  %26 = icmp ne i64 %25, 0
  br i1 %26, label %27, label %62

27:                                               ; preds = %19
  %28 = load ptr, ptr %7, align 8, !tbaa !68
  %29 = getelementptr inbounds nuw %struct.H5P_genprop_t, ptr %28, i32 0, i32 1
  %30 = load i64, ptr %29, align 8, !tbaa !76
  %31 = icmp eq i64 0, %30
  br i1 %31, label %32, label %51

32:                                               ; preds = %27
  br label %33

33:                                               ; preds = %32
  br label %34

34:                                               ; preds = %33
  br label %35

35:                                               ; preds = %34
  %36 = load i64, ptr @H5E_PLIST_g, align 8, !tbaa !11
  %37 = load i64, ptr @H5E_BADVALUE_g, align 8, !tbaa !11
  %38 = call i32 (ptr, ptr, i32, i64, i64, ptr, ...) @H5E_printf_stack(ptr noundef @.str.7, ptr noundef @__func__.H5P__poke_plist_cb, i32 noundef 2912, i64 noundef %36, i64 noundef %37, ptr noundef @.str.49)
  br label %39

39:                                               ; preds = %35
  br label %40

40:                                               ; preds = %39
  store i8 1, ptr %11, align 1, !tbaa !7
  %41 = load i8, ptr %11, align 1, !tbaa !7, !range !9, !noundef !10
  %42 = trunc i8 %41 to i1
  %43 = zext i1 %42 to i8
  store i8 %43, ptr %11, align 1, !tbaa !7
  br label %44

44:                                               ; preds = %40
  br label %45

45:                                               ; preds = %44
  br label %46

46:                                               ; preds = %45
  store i32 -1, ptr %10, align 4, !tbaa !3
  br label %61

47:                                               ; No predecessors!
  br label %48

48:                                               ; preds = %47
  br label %49

49:                                               ; preds = %48
  br label %50

50:                                               ; preds = %49
  br label %51

51:                                               ; preds = %50, %27
  %52 = load ptr, ptr %7, align 8, !tbaa !68
  %53 = getelementptr inbounds nuw %struct.H5P_genprop_t, ptr %52, i32 0, i32 2
  %54 = load ptr, ptr %53, align 8, !tbaa !75
  %55 = load ptr, ptr %9, align 8, !tbaa !40
  %56 = getelementptr inbounds nuw %struct.H5P_prop_set_ud_t, ptr %55, i32 0, i32 0
  %57 = load ptr, ptr %56, align 8, !tbaa !105
  %58 = load ptr, ptr %7, align 8, !tbaa !68
  %59 = getelementptr inbounds nuw %struct.H5P_genprop_t, ptr %58, i32 0, i32 1
  %60 = load i64, ptr %59, align 8, !tbaa !76
  call void @llvm.memcpy.p0.p0.i64(ptr align 1 %54, ptr align 1 %57, i64 %60, i1 false)
  br label %61

61:                                               ; preds = %51, %46
  br label %62

62:                                               ; preds = %61, %19
  %63 = load i32, ptr %10, align 4, !tbaa !3
  call void @llvm.lifetime.end.p0(i64 1, ptr %11) #8
  call void @llvm.lifetime.end.p0(i64 4, ptr %10) #8
  call void @llvm.lifetime.end.p0(i64 8, ptr %9) #8
  ret i32 %63
}